target datalayout = "e-m:e-p270:32:32-p271:32:32-p272:64:64-i64:64-i128:128-f80:128-n8:16:32:64-S128"
target triple = "x86_64-pc-linux-gnu"

%struct.strbuf = type { i64, i64, ptr }

@strbuf_slopbuf = dso_local global [1 x i8] zeroinitializer, align 1
@__const.strbuf_init.blank = private unnamed_addr constant %struct.strbuf { i64 0, i64 0, ptr @strbuf_slopbuf }, align 8
@.str = private unnamed_addr constant [36 x i8] c"you want to use way too much memory\00", align 1
@.str.27 = private unnamed_addr constant [27 x i8] c"size_t overflow: %lu * %lu\00", align 1
@.str.28 = private unnamed_addr constant [11 x i8] c"./strbuf.h\00", align 1
@.str.29 = private unnamed_addr constant [30 x i8] c"strbuf_setlen() beyond buffer\00", align 1

; Function Attrs: nounwind uwtable
define dso_local void @strbuf_init(ptr noundef %0, i64 noundef %1) #0 {
  %3 = alloca ptr, align 8
  %4 = alloca i64, align 8
  %5 = alloca %struct.strbuf, align 8
  store ptr %0, ptr %3, align 8, !tbaa !18
  store i64 %1, ptr %4, align 8, !tbaa !12
  call void @llvm.lifetime.start.p0(i64 24, ptr %5) #11
  call void @llvm.memcpy.p0.p0.i64(ptr align 8 %5, ptr align 8 @__const.strbuf_init.blank, i64 24, i1 false)
  %6 = load ptr, ptr %3, align 8, !tbaa !18
  call void @llvm.memcpy.p0.p0.i64(ptr align 8 %6, ptr align 8 %5, i64 24, i1 false)
  %7 = load i64, ptr %4, align 8, !tbaa !12
  %8 = icmp ne i64 %7, 0
  br i1 %8, label %9, label %12

9:                                                ; preds = %2
  %10 = load ptr, ptr %3, align 8, !tbaa !18
  %11 = load i64, ptr %4, align 8, !tbaa !12
  call void @strbuf_grow(ptr noundef %10, i64 noundef %11)
  br label %12

12:                                               ; preds = %9, %2
  call void @llvm.lifetime.end.p0(i64 24, ptr %5) #11
  ret void
}

; Function Attrs: inlinehint nounwind uwtable
define internal i64 @st_mult(i64 noundef %0, i64 noundef %1) #1 {
  %3 = alloca i64, align 8
  %4 = alloca i64, align 8
  store i64 %0, ptr %3, align 8, !tbaa !12
  store i64 %1, ptr %4, align 8, !tbaa !12
  %5 = load i64, ptr %3, align 8, !tbaa !12
  %6 = icmp ne i64 %5, 0
  br i1 %6, label %7, label %15

7:                                                ; preds = %2
  %8 = load i64, ptr %4, align 8, !tbaa !12
  %9 = load i64, ptr %3, align 8, !tbaa !12
  %10 = udiv i64 -1, %9
  %11 = icmp ugt i64 %8, %10
  br i1 %11, label %12, label %15

12:                                               ; preds = %7
  %13 = load i64, ptr %3, align 8, !tbaa !12
  %14 = load i64, ptr %4, align 8, !tbaa !12
  call void (ptr, ...) @die(ptr noundef @.str.27, i64 noundef %13, i64 noundef %14) #12
  unreachable

15:                                               ; preds = %7, %2
  %16 = load i64, ptr %3, align 8, !tbaa !12
  %17 = load i64, ptr %4, align 8, !tbaa !12
  %18 = mul i64 %16, %17
  ret i64 %18
}

; Function Attrs: nounwind uwtable
define dso_local void @strbuf_release(ptr noundef %0) #0 {
  %2 = alloca ptr, align 8
  store ptr %0, ptr %2, align 8, !tbaa !18
  %3 = load ptr, ptr %2, align 8, !tbaa !18
  %4 = getelementptr inbounds nuw %struct.strbuf, ptr %3, i32 0, i32 0
  %5 = load i64, ptr %4, align 8, !tbaa !20
  %6 = icmp ne i64 %5, 0
  br i1 %6, label %7, label %12

7:                                                ; preds = %1
  %8 = load ptr, ptr %2, align 8, !tbaa !18
  %9 = getelementptr inbounds nuw %struct.strbuf, ptr %8, i32 0, i32 2
  %10 = load ptr, ptr %9, align 8, !tbaa !23
  call void @free(ptr noundef %10) #11
  %11 = load ptr, ptr %2, align 8, !tbaa !18
  call void @strbuf_init(ptr noundef %11, i64 noundef 0)
  br label %12

12:                                               ; preds = %7, %1
  ret void
}

; Function Attrs: inlinehint nounwind uwtable
define internal void @strbuf_setlen(ptr noundef %0, i64 noundef %1) #1 {
  %3 = alloca ptr, align 8
  %4 = alloca i64, align 8
  store ptr %0, ptr %3, align 8, !tbaa !18
  store i64 %1, ptr %4, align 8, !tbaa !12
  %5 = load i64, ptr %4, align 8, !tbaa !12
  %6 = load ptr, ptr %3, align 8, !tbaa !18
  %7 = getelementptr inbounds nuw %struct.strbuf, ptr %6, i32 0, i32 0
  %8 = load i64, ptr %7, align 8, !tbaa !20
  %9 = icmp ne i64 %8, 0
  br i1 %9, label %10, label %15

10:                                               ; preds = %2
  %11 = load ptr, ptr %3, align 8, !tbaa !18
  %12 = getelementptr inbounds nuw %struct.strbuf, ptr %11, i32 0, i32 0
  %13 = load i64, ptr %12, align 8, !tbaa !20
  %14 = sub i64 %13, 1
  br label %16

15:                                               ; preds = %2
  br label %16

16:                                               ; preds = %15, %10
  %17 = phi i64 [ %14, %10 ], [ 0, %15 ]
  %18 = icmp ugt i64 %5, %17
  br i1 %18, label %19, label %20

19:                                               ; preds = %16
  call void (ptr, i32, ptr, ...) @BUG_fl(ptr noundef @.str.28, i32 noundef 167, ptr noundef @.str.29) #12
  unreachable

20:                                               ; preds = %16
  %21 = load i64, ptr %4, align 8, !tbaa !12
  %22 = load ptr, ptr %3, align 8, !tbaa !18
  %23 = getelementptr inbounds nuw %struct.strbuf, ptr %22, i32 0, i32 1
  store i64 %21, ptr %23, align 8, !tbaa !22
  %24 = load ptr, ptr %3, align 8, !tbaa !18
  %25 = getelementptr inbounds nuw %struct.strbuf, ptr %24, i32 0, i32 2
  %26 = load ptr, ptr %25, align 8, !tbaa !23
  %27 = icmp ne ptr %26, @strbuf_slopbuf
  br i1 %27, label %28, label %34

28:                                               ; preds = %20
  %29 = load ptr, ptr %3, align 8, !tbaa !18
  %30 = getelementptr inbounds nuw %struct.strbuf, ptr %29, i32 0, i32 2
  %31 = load ptr, ptr %30, align 8, !tbaa !23
  %32 = load i64, ptr %4, align 8, !tbaa !12
  %33 = getelementptr inbounds nuw i8, ptr %31, i64 %32
  store i8 0, ptr %33, align 1, !tbaa !9
  br label %35

34:                                               ; preds = %20
  br label %35

35:                                               ; preds = %34, %28
  ret void
}

; Function Attrs: nounwind uwtable
define dso_local void @strbuf_grow(ptr noundef %0, i64 noundef %1) #0 {
  %3 = alloca ptr, align 8
  %4 = alloca i64, align 8
  %5 = alloca i32, align 4
  store ptr %0, ptr %3, align 8, !tbaa !18
  store i64 %1, ptr %4, align 8, !tbaa !12
  call void @llvm.lifetime.start.p0(i64 4, ptr %5) #11
  %6 = load ptr, ptr %3, align 8, !tbaa !18
  %7 = getelementptr inbounds nuw %struct.strbuf, ptr %6, i32 0, i32 0
  %8 = load i64, ptr %7, align 8, !tbaa !20
  %9 = icmp ne i64 %8, 0
  %10 = xor i1 %9, true
  %11 = zext i1 %10 to i32
  store i32 %11, ptr %5, align 4, !tbaa !10
  %12 = load i64, ptr %4, align 8, !tbaa !12
  %13 = sub i64 -1, %12
  %14 = icmp ugt i64 1, %13
  br i1 %14, label %23, label %15

15:                                               ; preds = %2
  %16 = load i64, ptr %4, align 8, !tbaa !12
  %17 = add i64 %16, 1
  %18 = load ptr, ptr %3, align 8, !tbaa !18
  %19 = getelementptr inbounds nuw %struct.strbuf, ptr %18, i32 0, i32 1
  %20 = load i64, ptr %19, align 8, !tbaa !22
  %21 = sub i64 -1, %20
  %22 = icmp ugt i64 %17, %21
  br i1 %22, label %23, label %24

23:                                               ; preds = %15, %2
  call void (ptr, ...) @die(ptr noundef @.str) #12
  unreachable

24:                                               ; preds = %15
  %25 = load i32, ptr %5, align 4, !tbaa !10
  %26 = icmp ne i32 %25, 0
  br i1 %26, label %27, label %30

27:                                               ; preds = %24
  %28 = load ptr, ptr %3, align 8, !tbaa !18
  %29 = getelementptr inbounds nuw %struct.strbuf, ptr %28, i32 0, i32 2
  store ptr null, ptr %29, align 8, !tbaa !23
  br label %30

30:                                               ; preds = %27, %24
  br label %31

31:                                               ; preds = %30
  %32 = load ptr, ptr %3, align 8, !tbaa !18
  %33 = getelementptr inbounds nuw %struct.strbuf, ptr %32, i32 0, i32 1
  %34 = load i64, ptr %33, align 8, !tbaa !22
  %35 = load i64, ptr %4, align 8, !tbaa !12
  %36 = add i64 %34, %35
  %37 = add i64 %36, 1
  %38 = load ptr, ptr %3, align 8, !tbaa !18
  %39 = getelementptr inbounds nuw %struct.strbuf, ptr %38, i32 0, i32 0
  %40 = load i64, ptr %39, align 8, !tbaa !20
  %41 = icmp ugt i64 %37, %40
  br i1 %41, label %42, label %85

42:                                               ; preds = %31
  %43 = load ptr, ptr %3, align 8, !tbaa !18
  %44 = getelementptr inbounds nuw %struct.strbuf, ptr %43, i32 0, i32 0
  %45 = load i64, ptr %44, align 8, !tbaa !20
  %46 = add i64 %45, 16
  %47 = mul i64 %46, 3
  %48 = udiv i64 %47, 2
  %49 = load ptr, ptr %3, align 8, !tbaa !18
  %50 = getelementptr inbounds nuw %struct.strbuf, ptr %49, i32 0, i32 1
  %51 = load i64, ptr %50, align 8, !tbaa !22
  %52 = load i64, ptr %4, align 8, !tbaa !12
  %53 = add i64 %51, %52
  %54 = add i64 %53, 1
  %55 = icmp ult i64 %48, %54
  br i1 %55, label %56, label %65

56:                                               ; preds = %42
  %57 = load ptr, ptr %3, align 8, !tbaa !18
  %58 = getelementptr inbounds nuw %struct.strbuf, ptr %57, i32 0, i32 1
  %59 = load i64, ptr %58, align 8, !tbaa !22
  %60 = load i64, ptr %4, align 8, !tbaa !12
  %61 = add i64 %59, %60
  %62 = add i64 %61, 1
  %63 = load ptr, ptr %3, align 8, !tbaa !18
  %64 = getelementptr inbounds nuw %struct.strbuf, ptr %63, i32 0, i32 0
  store i64 %62, ptr %64, align 8, !tbaa !20
  br label %74

65:                                               ; preds = %42
  %66 = load ptr, ptr %3, align 8, !tbaa !18
  %67 = getelementptr inbounds nuw %struct.strbuf, ptr %66, i32 0, i32 0
  %68 = load i64, ptr %67, align 8, !tbaa !20
  %69 = add i64 %68, 16
  %70 = mul i64 %69, 3
  %71 = udiv i64 %70, 2
  %72 = load ptr, ptr %3, align 8, !tbaa !18
  %73 = getelementptr inbounds nuw %struct.strbuf, ptr %72, i32 0, i32 0
  store i64 %71, ptr %73, align 8, !tbaa !20
  br label %74

74:                                               ; preds = %65, %56
  %75 = load ptr, ptr %3, align 8, !tbaa !18
  %76 = getelementptr inbounds nuw %struct.strbuf, ptr %75, i32 0, i32 2
  %77 = load ptr, ptr %76, align 8, !tbaa !23
  %78 = load ptr, ptr %3, align 8, !tbaa !18
  %79 = getelementptr inbounds nuw %struct.strbuf, ptr %78, i32 0, i32 0
  %80 = load i64, ptr %79, align 8, !tbaa !20
  %81 = call i64 @st_mult(i64 noundef 1, i64 noundef %80)
  %82 = call ptr @xrealloc(ptr noundef %77, i64 noundef %81)
  %83 = load ptr, ptr %3, align 8, !tbaa !18
  %84 = getelementptr inbounds nuw %struct.strbuf, ptr %83, i32 0, i32 2
  store ptr %82, ptr %84, align 8, !tbaa !23
  br label %85

85:                                               ; preds = %74, %31
  br label %86

86:                                               ; preds = %85
  br label %87

87:                                               ; preds = %86
  %88 = load i32, ptr %5, align 4, !tbaa !10
  %89 = icmp ne i32 %88, 0
  br i1 %89, label %90, label %95

90:                                               ; preds = %87
  %91 = load ptr, ptr %3, align 8, !tbaa !18
  %92 = getelementptr inbounds nuw %struct.strbuf, ptr %91, i32 0, i32 2
  %93 = load ptr, ptr %92, align 8, !tbaa !23
  %94 = getelementptr inbounds i8, ptr %93, i64 0
  store i8 0, ptr %94, align 1, !tbaa !9
  br label %95

95:                                               ; preds = %90, %87
  call void @llvm.lifetime.end.p0(i64 4, ptr %5) #11
  ret void
}

; Function Attrs: nounwind uwtable
define dso_local i64 @strbuf_read_once(ptr noundef %0, i32 noundef %1, i64 noundef %2) #0 {
  %4 = alloca ptr, align 8
  %5 = alloca i32, align 4
  %6 = alloca i64, align 8
  %7 = alloca i64, align 8
  %8 = alloca i64, align 8
  store ptr %0, ptr %4, align 8, !tbaa !18
  store i32 %1, ptr %5, align 4, !tbaa !10
  store i64 %2, ptr %6, align 8, !tbaa !12
  call void @llvm.lifetime.start.p0(i64 8, ptr %7) #11
  %9 = load ptr, ptr %4, align 8, !tbaa !18
  %10 = getelementptr inbounds nuw %struct.strbuf, ptr %9, i32 0, i32 0
  %11 = load i64, ptr %10, align 8, !tbaa !20
  store i64 %11, ptr %7, align 8, !tbaa !12
  call void @llvm.lifetime.start.p0(i64 8, ptr %8) #11
  %12 = load ptr, ptr %4, align 8, !tbaa !18
  %13 = load i64, ptr %6, align 8, !tbaa !12
  %14 = icmp ne i64 %13, 0
  br i1 %14, label %15, label %17

15:                                               ; preds = %3
  %16 = load i64, ptr %6, align 8, !tbaa !12
  br label %18

17:                                               ; preds = %3
  br label %18

18:                                               ; preds = %17, %15
  %19 = phi i64 [ %16, %15 ], [ 8192, %17 ]
  call void @strbuf_grow(ptr noundef %12, i64 noundef %19)
  %20 = load i32, ptr %5, align 4, !tbaa !10
  %21 = load ptr, ptr %4, align 8, !tbaa !18
  %22 = getelementptr inbounds nuw %struct.strbuf, ptr %21, i32 0, i32 2
  %23 = load ptr, ptr %22, align 8, !tbaa !23
  %24 = load ptr, ptr %4, align 8, !tbaa !18
  %25 = getelementptr inbounds nuw %struct.strbuf, ptr %24, i32 0, i32 1
  %26 = load i64, ptr %25, align 8, !tbaa !22
  %27 = getelementptr inbounds nuw i8, ptr %23, i64 %26
  %28 = load ptr, ptr %4, align 8, !tbaa !18
  %29 = getelementptr inbounds nuw %struct.strbuf, ptr %28, i32 0, i32 0
  %30 = load i64, ptr %29, align 8, !tbaa !20
  %31 = load ptr, ptr %4, align 8, !tbaa !18
  %32 = getelementptr inbounds nuw %struct.strbuf, ptr %31, i32 0, i32 1
  %33 = load i64, ptr %32, align 8, !tbaa !22
  %34 = sub i64 %30, %33
  %35 = sub i64 %34, 1
  %36 = call i64 @xread(i32 noundef %20, ptr noundef %27, i64 noundef %35)
  store i64 %36, ptr %8, align 8, !tbaa !12
  %37 = load i64, ptr %8, align 8, !tbaa !12
  %38 = icmp sgt i64 %37, 0
  br i1 %38, label %39, label %46

39:                                               ; preds = %18
  %40 = load ptr, ptr %4, align 8, !tbaa !18
  %41 = load ptr, ptr %4, align 8, !tbaa !18
  %42 = getelementptr inbounds nuw %struct.strbuf, ptr %41, i32 0, i32 1
  %43 = load i64, ptr %42, align 8, !tbaa !22
  %44 = load i64, ptr %8, align 8, !tbaa !12
  %45 = add i64 %43, %44
  call void @strbuf_setlen(ptr noundef %40, i64 noundef %45)
  br label %52

46:                                               ; preds = %18
  %47 = load i64, ptr %7, align 8, !tbaa !12
  %48 = icmp eq i64 %47, 0
  br i1 %48, label %49, label %51

49:                                               ; preds = %46
  %50 = load ptr, ptr %4, align 8, !tbaa !18
  call void @strbuf_release(ptr noundef %50)
  br label %51

51:                                               ; preds = %49, %46
  br label %52

52:                                               ; preds = %51, %39
  %53 = load i64, ptr %8, align 8, !tbaa !12
  call void @llvm.lifetime.end.p0(i64 8, ptr %8) #11
  call void @llvm.lifetime.end.p0(i64 8, ptr %7) #11
  ret i64 %53
}