; Function Attrs: nounwind uwtable
define dso_local i64 @strbuf_read_once(ptr noundef captures(none) %0, i32 noundef %1, i64 noundef %2) local_unnamed_addr #3 {
  %4 = load i64, ptr %0, align 8, !tbaa !15
  %.not = icmp eq i64 %2, 0
  %5 = select i1 %.not, i64 8192, i64 %2
  %.not.i = icmp eq i64 %4, 0
  %6 = icmp eq i64 %5, -1
  br i1 %6, label %12, label %7

7:                                                ; preds = %3
  %8 = getelementptr inbounds nuw i8, ptr %0, i64 8
  %9 = load i64, ptr %8, align 8, !tbaa !16
  %10 = sub nuw i64 -2, %5
  %11 = icmp ult i64 %10, %9
  br i1 %11, label %12, label %13

12:                                               ; preds = %7, %3
  tail call void (ptr, ...) @die(ptr noundef nonnull @.str) #24
  unreachable

13:                                               ; preds = %7
  br i1 %.not.i, label %14, label %16

14:                                               ; preds = %13
  %15 = getelementptr inbounds nuw i8, ptr %0, i64 16
  store ptr null, ptr %15, align 8, !tbaa !12
  br label %16

16:                                               ; preds = %14, %13
  %17 = add nuw i64 %5, 1
  %18 = add i64 %17, %9
  %19 = icmp ugt i64 %18, %4
  br i1 %19, label %st_mult.exit.i, label %26

st_mult.exit.i:                                   ; preds = %16
  %20 = mul i64 %4, 3
  %21 = add i64 %20, 48
  %22 = lshr i64 %21, 1
  %..i = tail call i64 @llvm.umax.i64(i64 %22, i64 %18)
  store i64 %..i, ptr %0, align 8, !tbaa !15
  %23 = getelementptr inbounds nuw i8, ptr %0, i64 16
  %24 = load ptr, ptr %23, align 8, !tbaa !12
  %25 = tail call ptr @xrealloc(ptr noundef %24, i64 noundef %..i) #25
  store ptr %25, ptr %23, align 8, !tbaa !12
  br label %26

26:                                               ; preds = %st_mult.exit.i, %16
  br i1 %.not.i, label %27, label %strbuf_grow.exit

27:                                               ; preds = %26
  %28 = getelementptr inbounds nuw i8, ptr %0, i64 16
  %29 = load ptr, ptr %28, align 8, !tbaa !12
  store i8 0, ptr %29, align 1, !tbaa !4
  br label %strbuf_grow.exit

strbuf_grow.exit:                                 ; preds = %26, %27
  %30 = getelementptr inbounds nuw i8, ptr %0, i64 16
  %31 = load ptr, ptr %30, align 8, !tbaa !12
  %32 = load i64, ptr %8, align 8, !tbaa !16
  %33 = getelementptr inbounds nuw i8, ptr %31, i64 %32
  %34 = load i64, ptr %0, align 8, !tbaa !15
  %35 = xor i64 %32, -1
  %36 = add i64 %34, %35
  %37 = tail call i64 @xread(i32 noundef %1, ptr noundef %33, i64 noundef %36) #25
  %38 = icmp sgt i64 %37, 0
  br i1 %38, label %39, label %49

39:                                               ; preds = %strbuf_grow.exit
  %40 = load i64, ptr %8, align 8, !tbaa !16
  %41 = add i64 %40, %37
  %42 = load i64, ptr %0, align 8, !tbaa !15
  %spec.select.i = tail call i64 @llvm.usub.sat.i64(i64 %42, i64 1)
  %43 = icmp ugt i64 %41, %spec.select.i
  br i1 %43, label %44, label %45

44:                                               ; preds = %39
  tail call void (ptr, i32, ptr, ...) @BUG_fl(ptr noundef nonnull @.str.28, i32 noundef 167, ptr noundef nonnull @.str.29) #24
  unreachable

45:                                               ; preds = %39
  store i64 %41, ptr %8, align 8, !tbaa !16
  %46 = load ptr, ptr %30, align 8, !tbaa !12
  %.not9.i = icmp eq ptr %46, @strbuf_slopbuf
  br i1 %.not9.i, label %strbuf_setlen.exit, label %47

47:                                               ; preds = %45
  %48 = getelementptr inbounds nuw i8, ptr %46, i64 %41
  store i8 0, ptr %48, align 1, !tbaa !4
  br label %strbuf_setlen.exit

49:                                               ; preds = %strbuf_grow.exit
  br i1 %.not.i, label %50, label %strbuf_setlen.exit

50:                                               ; preds = %49
  %51 = load i64, ptr %0, align 8, !tbaa !15
  %.not.i15 = icmp eq i64 %51, 0
  br i1 %.not.i15, label %strbuf_setlen.exit, label %52

52:                                               ; preds = %50
  %53 = load ptr, ptr %30, align 8, !tbaa !12
  tail call void @free(ptr noundef %53) #25
  tail call void @llvm.memcpy.p0.p0.i64(ptr noundef nonnull align 8 dereferenceable(24) %0, ptr noundef nonnull align 8 dereferenceable(24) @__const.strbuf_addftime.munged_fmt, i64 24, i1 false)
  br label %strbuf_setlen.exit

strbuf_setlen.exit:                               ; preds = %52, %50, %47, %45, %49
  ret i64 %37
}